; Function Attrs: nounwind sspstrong uwtable
define internal i64 @memsize_of_m(i64 %0, i64 noundef %1) #0 {
  %3 = tail call i64 @rb_obj_memsize_of(i64 noundef %1) #7
  %4 = icmp ult i64 %3, 4611686018427387904
  br i1 %4, label %5, label %8

5:                                                ; preds = %2
  %6 = shl nuw nsw i64 %3, 1
  %7 = or disjoint i64 %6, 1
  br label %rb_ull2num_inline.exit

8:                                                ; preds = %2
  %9 = tail call i64 @rb_ull2inum(i64 noundef %3) #7
  br label %rb_ull2num_inline.exit

rb_ull2num_inline.exit:                           ; preds = %5, %8
  %.0.i = phi i64 [ %7, %5 ], [ %9, %8 ]
  ret i64 %.0.i
}